target datalayout = "e-m:e-p270:32:32-p271:32:32-p272:64:64-i64:64-i128:128-f80:128-n8:16:32:64-S128"
target triple = "x86_64-pc-linux-gnu"

%struct.anon = type { i32, ptr }

; Function Attrs: mustprogress nounwind uwtable
define noundef ptr @_ZN6LibRaw20cameramakeridx2makerEj(i32 noundef %0) #0 align 2 {
  %2 = alloca ptr, align 8
  %3 = alloca i32, align 4
  %4 = alloca i32, align 4
  %5 = alloca i32, align 4
  store i32 %0, ptr %3, align 4, !tbaa !11
  call void @llvm.lifetime.start.p0(i64 4, ptr %4) #11
  store i32 0, ptr %4, align 4, !tbaa !11
  br label %6

6:                                                ; preds = %25, %1
  %7 = load i32, ptr %4, align 4, !tbaa !11
  %8 = icmp slt i32 %7, 78
  br i1 %8, label %10, label %9

9:                                                ; preds = %6
  store i32 2, ptr %5, align 4
  br label %28

10:                                               ; preds = %6
  %11 = load i32, ptr %4, align 4, !tbaa !11
  %12 = sext i32 %11 to i64
  %13 = getelementptr inbounds [78 x %struct.anon], ptr @_ZL9CorpTable, i64 0, i64 %12
  %14 = getelementptr inbounds nuw %struct.anon, ptr %13, i32 0, i32 0
  %15 = load i32, ptr %14, align 16, !tbaa !13
  %16 = load i32, ptr %3, align 4, !tbaa !11
  %17 = icmp eq i32 %15, %16
  br i1 %17, label %18, label %24

18:                                               ; preds = %10
  %19 = load i32, ptr %4, align 4, !tbaa !11
  %20 = sext i32 %19 to i64
  %21 = getelementptr inbounds [78 x %struct.anon], ptr @_ZL9CorpTable, i64 0, i64 %20
  %22 = getelementptr inbounds nuw %struct.anon, ptr %21, i32 0, i32 1
  %23 = load ptr, ptr %22, align 8, !tbaa !16
  store ptr %23, ptr %2, align 8
  store i32 1, ptr %5, align 4
  br label %28

24:                                               ; preds = %10
  br label %25

25:                                               ; preds = %24
  %26 = load i32, ptr %4, align 4, !tbaa !11
  %27 = add nsw i32 %26, 1
  store i32 %27, ptr %4, align 4, !tbaa !11
  br label %6, !llvm.loop !79

28:                                               ; preds = %18, %9
  call void @llvm.lifetime.end.p0(i64 4, ptr %4) #11
  %29 = load i32, ptr %5, align 4
  switch i32 %29, label %33 [
    i32 2, label %30
    i32 1, label %31
  ]

30:                                               ; preds = %28
  store ptr null, ptr %2, align 8
  br label %31

31:                                               ; preds = %30, %28
  %32 = load ptr, ptr %2, align 8
  ret ptr %32

33:                                               ; preds = %28
  unreachable
}