; Function Attrs: mustprogress nofree norecurse nosync nounwind willreturn memory(none) uwtable
define noundef ptr @_ZN6LibRaw20cameramakeridx2makerEj(i32 noundef %0) local_unnamed_addr #3 align 2 {
  br label %3

2:                                                ; preds = %3
  %indvars.iv.next = add nuw nsw i64 %indvars.iv, 1
  %exitcond = icmp eq i64 %indvars.iv.next, 78
  br i1 %exitcond, label %.loopexit, label %3, !llvm.loop !76

3:                                                ; preds = %1, %2
  %indvars.iv = phi i64 [ 0, %1 ], [ %indvars.iv.next, %2 ]
  %4 = getelementptr inbounds nuw [78 x %struct.anon], ptr @_ZL9CorpTable, i64 0, i64 %indvars.iv
  %5 = load i32, ptr %4, align 16, !tbaa !8
  %6 = icmp eq i32 %5, %0
  br i1 %6, label %7, label %2

7:                                                ; preds = %3
  %8 = getelementptr inbounds nuw i8, ptr %4, i64 8
  %9 = load ptr, ptr %8, align 8, !tbaa !15
  br label %.loopexit

.loopexit:                                        ; preds = %2, %7
  %spec.select = phi ptr [ %9, %7 ], [ null, %2 ]
  ret ptr %spec.select
}